target datalayout = "e-m:e-p270:32:32-p271:32:32-p272:64:64-i64:64-i128:128-f80:128-n8:16:32:64-S128"
target triple = "x86_64-pc-linux-gnu"

%struct.curve448_scalar_s = type { [7 x i64] }
%struct.curve448_point_s = type { [1 x %struct.gf_s], [1 x %struct.gf_s], [1 x %struct.gf_s], [1 x %struct.gf_s] }
%struct.gf_s = type { [8 x i64] }

@ossl_curve448_precomputed_base = external global ptr, align 8

; Function Attrs: nounwind uwtable
define internal void @clamp(ptr noundef %0) #0 {
  %2 = alloca ptr, align 8
  store ptr %0, ptr %2, align 8, !tbaa !8
  %3 = load ptr, ptr %2, align 8, !tbaa !8
  %4 = getelementptr inbounds i8, ptr %3, i64 0
  %5 = load i8, ptr %4, align 1, !tbaa !22
  %6 = zext i8 %5 to i32
  %7 = and i32 %6, -4
  %8 = trunc i32 %7 to i8
  store i8 %8, ptr %4, align 1, !tbaa !22
  %9 = load ptr, ptr %2, align 8, !tbaa !8
  %10 = getelementptr inbounds i8, ptr %9, i64 56
  store i8 0, ptr %10, align 1, !tbaa !22
  %11 = load ptr, ptr %2, align 8, !tbaa !8
  %12 = getelementptr inbounds i8, ptr %11, i64 55
  %13 = load i8, ptr %12, align 1, !tbaa !22
  %14 = zext i8 %13 to i32
  %15 = or i32 %14, 128
  %16 = trunc i32 %15 to i8
  store i8 %16, ptr %12, align 1, !tbaa !22
  ret void
}

; Function Attrs: nounwind uwtable
define i32 @ossl_c448_ed448_derive_public_key(ptr noundef %0, ptr noundef %1, ptr noundef %2, ptr noundef %3) #0 {
  %5 = alloca i32, align 4
  %6 = alloca ptr, align 8
  %7 = alloca ptr, align 8
  %8 = alloca ptr, align 8
  %9 = alloca ptr, align 8
  %10 = alloca [57 x i8], align 16
  %11 = alloca [1 x %struct.curve448_scalar_s], align 16
  %12 = alloca i32, align 4
  %13 = alloca [1 x %struct.curve448_point_s], align 16
  %14 = alloca i32, align 4
  store ptr %0, ptr %6, align 8, !tbaa !3
  store ptr %1, ptr %7, align 8, !tbaa !8
  store ptr %2, ptr %8, align 8, !tbaa !8
  store ptr %3, ptr %9, align 8, !tbaa !8
  call void @llvm.lifetime.start.p0(i64 57, ptr %10) #6
  call void @llvm.lifetime.start.p0(i64 56, ptr %11) #6
  call void @llvm.lifetime.start.p0(i64 4, ptr %12) #6
  call void @llvm.lifetime.start.p0(i64 256, ptr %13) #6
  %15 = load ptr, ptr %6, align 8, !tbaa !3
  %16 = getelementptr inbounds [57 x i8], ptr %10, i64 0, i64 0
  %17 = load ptr, ptr %8, align 8, !tbaa !8
  %18 = load ptr, ptr %9, align 8, !tbaa !8
  %19 = call i32 @oneshot_hash(ptr noundef %15, ptr noundef %16, i64 noundef 57, ptr noundef %17, i64 noundef 57, ptr noundef %18)
  %20 = icmp ne i32 %19, 0
  br i1 %20, label %22, label %21

21:                                               ; preds = %4
  store i32 0, ptr %5, align 4
  store i32 1, ptr %14, align 4
  br label %44

22:                                               ; preds = %4
  %23 = getelementptr inbounds [57 x i8], ptr %10, i64 0, i64 0
  call void @clamp(ptr noundef %23)
  %24 = getelementptr inbounds [1 x %struct.curve448_scalar_s], ptr %11, i64 0, i64 0
  %25 = getelementptr inbounds [57 x i8], ptr %10, i64 0, i64 0
  call void @ossl_curve448_scalar_decode_long(ptr noundef %24, ptr noundef %25, i64 noundef 57)
  store i32 1, ptr %12, align 4, !tbaa !16
  br label %26

26:                                               ; preds = %32, %22
  %27 = load i32, ptr %12, align 4, !tbaa !16
  %28 = icmp ult i32 %27, 4
  br i1 %28, label %29, label %35

29:                                               ; preds = %26
  %30 = getelementptr inbounds [1 x %struct.curve448_scalar_s], ptr %11, i64 0, i64 0
  %31 = getelementptr inbounds [1 x %struct.curve448_scalar_s], ptr %11, i64 0, i64 0
  call void @ossl_curve448_scalar_halve(ptr noundef %30, ptr noundef %31)
  br label %32

32:                                               ; preds = %29
  %33 = load i32, ptr %12, align 4, !tbaa !16
  %34 = shl i32 %33, 1
  store i32 %34, ptr %12, align 4, !tbaa !16
  br label %26, !llvm.loop !18

35:                                               ; preds = %26
  %36 = getelementptr inbounds [1 x %struct.curve448_point_s], ptr %13, i64 0, i64 0
  %37 = load ptr, ptr @ossl_curve448_precomputed_base, align 8, !tbaa !20
  %38 = getelementptr inbounds [1 x %struct.curve448_scalar_s], ptr %11, i64 0, i64 0
  call void @ossl_curve448_precomputed_scalarmul(ptr noundef %36, ptr noundef %37, ptr noundef %38)
  %39 = load ptr, ptr %7, align 8, !tbaa !8
  %40 = getelementptr inbounds [1 x %struct.curve448_point_s], ptr %13, i64 0, i64 0
  call void @ossl_curve448_point_mul_by_ratio_and_encode_like_eddsa(ptr noundef %39, ptr noundef %40)
  %41 = getelementptr inbounds [1 x %struct.curve448_scalar_s], ptr %11, i64 0, i64 0
  call void @ossl_curve448_scalar_destroy(ptr noundef %41)
  %42 = getelementptr inbounds [1 x %struct.curve448_point_s], ptr %13, i64 0, i64 0
  call void @ossl_curve448_point_destroy(ptr noundef %42)
  %43 = getelementptr inbounds [57 x i8], ptr %10, i64 0, i64 0
  call void @OPENSSL_cleanse(ptr noundef %43, i64 noundef 57)
  store i32 -1, ptr %5, align 4
  store i32 1, ptr %14, align 4
  br label %44

44:                                               ; preds = %35, %21
  call void @llvm.lifetime.end.p0(i64 256, ptr %13) #6
  call void @llvm.lifetime.end.p0(i64 4, ptr %12) #6
  call void @llvm.lifetime.end.p0(i64 56, ptr %11) #6
  call void @llvm.lifetime.end.p0(i64 57, ptr %10) #6
  %45 = load i32, ptr %5, align 4
  ret i32 %45
}