; Function Attrs: nounwind uwtable
define range(i32 -1, 1) i32 @ossl_c448_ed448_derive_public_key(ptr noundef %0, ptr noundef %1, ptr noundef %2, ptr noundef %3) local_unnamed_addr #0 {
  %5 = alloca [57 x i8], align 16
  %6 = alloca [1 x %struct.curve448_scalar_s], align 16
  %7 = alloca [1 x %struct.curve448_point_s], align 16
  call void @llvm.lifetime.start.p0(i64 57, ptr nonnull %5) #5
  call void @llvm.lifetime.start.p0(i64 56, ptr nonnull %6) #5
  call void @llvm.lifetime.start.p0(i64 256, ptr nonnull %7) #5
  %8 = call fastcc i32 @oneshot_hash(ptr noundef %0, ptr noundef nonnull %5, i64 noundef 57, ptr noundef %2, ptr noundef %3)
  %.not = icmp eq i32 %8, 0
  br i1 %.not, label %21, label %9

9:                                                ; preds = %4
  %10 = load i8, ptr %5, align 16, !tbaa !3
  %11 = and i8 %10, -4
  store i8 %11, ptr %5, align 16, !tbaa !3
  %12 = getelementptr inbounds nuw i8, ptr %5, i64 56
  store i8 0, ptr %12, align 8, !tbaa !3
  %13 = getelementptr inbounds nuw i8, ptr %5, i64 55
  %14 = load i8, ptr %13, align 1, !tbaa !3
  %15 = or i8 %14, -128
  store i8 %15, ptr %13, align 1, !tbaa !3
  call void @ossl_curve448_scalar_decode_long(ptr noundef nonnull %6, ptr noundef nonnull %5, i64 noundef 57) #5
  br label %16

16:                                               ; preds = %9, %16
  %.07 = phi i32 [ 1, %9 ], [ %17, %16 ]
  call void @ossl_curve448_scalar_halve(ptr noundef nonnull %6, ptr noundef nonnull %6) #5
  %17 = shl nuw nsw i32 %.07, 1
  %18 = icmp samesign ult i32 %.07, 2
  br i1 %18, label %16, label %19, !llvm.loop !6

19:                                               ; preds = %16
  %20 = load ptr, ptr @ossl_curve448_precomputed_base, align 8, !tbaa !8
  call void @ossl_curve448_precomputed_scalarmul(ptr noundef nonnull %7, ptr noundef %20, ptr noundef nonnull %6) #5
  call void @ossl_curve448_point_mul_by_ratio_and_encode_like_eddsa(ptr noundef %1, ptr noundef nonnull %7) #5
  call void @ossl_curve448_scalar_destroy(ptr noundef nonnull %6) #5
  call void @ossl_curve448_point_destroy(ptr noundef nonnull %7) #5
  call void @OPENSSL_cleanse(ptr noundef nonnull %5, i64 noundef 57) #5
  br label %21

21:                                               ; preds = %4, %19
  %.06 = phi i32 [ -1, %19 ], [ 0, %4 ]
  call void @llvm.lifetime.end.p0(i64 256, ptr nonnull %7) #5
  call void @llvm.lifetime.end.p0(i64 56, ptr nonnull %6) #5
  call void @llvm.lifetime.end.p0(i64 57, ptr nonnull %5) #5
  ret i32 %.06
}